; Function Attrs: mustprogress uwtable
define noundef ptr @_ZN32pxrInternal_v0_24__pxrReserved__26SdfNamespaceEdit_Namespace14_GetNodeAtPathERKNS_7SdfPathE(ptr noundef nonnull readonly align 8 dereferenceable(144) %0, ptr noundef nonnull align 4 dereferenceable(8) %1) local_unnamed_addr #0 align 2 personality ptr @__gxx_personality_v0 {
  %3 = alloca %"class.std::vector", align 8
  %4 = getelementptr inbounds nuw i8, ptr %0, i64 8
  call void @_ZNK32pxrInternal_v0_24__pxrReserved__7SdfPath11GetPrefixesEv(ptr dead_on_unwind nonnull writable sret(%"class.std::vector") align 8 %3, ptr noundef nonnull align 4 dereferenceable(8) %1)
  %5 = load ptr, ptr %3, align 8
  %6 = getelementptr inbounds nuw i8, ptr %3, i64 8
  %7 = load ptr, ptr %6, align 8
  %.not1415 = icmp eq ptr %5, %7
  br i1 %.not1415, label %_ZSt8_DestroyIPN32pxrInternal_v0_24__pxrReserved__7SdfPathES1_EvT_S3_RSaIT0_E.exit.i, label %.lr.ph

.lr.ph:                                           ; preds = %2, %9
  %.017 = phi ptr [ %8, %9 ], [ %4, %2 ]
  %.sroa.011.016 = phi ptr [ %10, %9 ], [ %5, %2 ]
  %8 = invoke noundef ptr @_ZN32pxrInternal_v0_24__pxrReserved__26SdfNamespaceEdit_Namespace5_Node8GetChildERKNS_7SdfPathE(ptr noundef nonnull align 8 dereferenceable(40) %.017, ptr noundef nonnull align 4 dereferenceable(8) %.sroa.011.016)
          to label %9 unwind label %11

9:                                                ; preds = %.lr.ph
  %.not = icmp eq ptr %8, null
  %10 = getelementptr inbounds nuw i8, ptr %.sroa.011.016, i64 8
  %.not14 = icmp eq ptr %10, %7
  %or.cond = select i1 %.not, i1 true, i1 %.not14
  br i1 %or.cond, label %._crit_edge, label %.lr.ph

11:                                               ; preds = %.lr.ph
  %12 = landingpad { ptr, i32 }
          cleanup
  call void @_ZNSt6vectorIN32pxrInternal_v0_24__pxrReserved__7SdfPathESaIS1_EED2Ev(ptr noundef nonnull align 8 dereferenceable(24) %3) #24
  resume { ptr, i32 } %12

._crit_edge:                                      ; preds = %9
  %.pre = load ptr, ptr %3, align 8
  %.pre20 = load ptr, ptr %6, align 8
  %.not4.i.i.i.i = icmp eq ptr %.pre, %.pre20
  br i1 %.not4.i.i.i.i, label %_ZSt8_DestroyIPN32pxrInternal_v0_24__pxrReserved__7SdfPathES1_EvT_S3_RSaIT0_E.exit.i, label %.lr.ph.i.i.i.i

.lr.ph.i.i.i.i:                                   ; preds = %._crit_edge, %_ZSt8_DestroyIN32pxrInternal_v0_24__pxrReserved__7SdfPathEEvPT_.exit.i.i.i.i
  %.05.i.i.i.i = phi ptr [ %31, %_ZSt8_DestroyIN32pxrInternal_v0_24__pxrReserved__7SdfPathEEvPT_.exit.i.i.i.i ], [ %.pre, %._crit_edge ]
  %13 = load i32, ptr %.05.i.i.i.i, align 4
  %.not.i.i.i.i.i.i.i = icmp eq i32 %13, 0
  br i1 %.not.i.i.i.i.i.i.i, label %_ZSt8_DestroyIN32pxrInternal_v0_24__pxrReserved__7SdfPathEEvPT_.exit.i.i.i.i, label %14

14:                                               ; preds = %.lr.ph.i.i.i.i
  %15 = and i32 %13, 255
  %16 = lshr i32 %13, 8
  %17 = zext nneg i32 %15 to i64
  %18 = getelementptr inbounds nuw [257 x ptr], ptr @_ZN32pxrInternal_v0_24__pxrReserved__8Sdf_PoolINS_15Sdf_PathPrimTagELj24ELj8ELj16384EE13_regionStartsE, i64 0, i64 %17
  %19 = load ptr, ptr %18, align 8
  %20 = mul nuw nsw i32 %16, 24
  %21 = zext nneg i32 %20 to i64
  %22 = getelementptr inbounds nuw i8, ptr %19, i64 %21
  %23 = getelementptr inbounds nuw i8, ptr %22, i64 8
  %24 = atomicrmw sub ptr %23, i32 1 seq_cst, align 4
  %25 = and i32 %24, 2147483647
  %26 = icmp eq i32 %25, 1
  br i1 %26, label %27, label %_ZSt8_DestroyIN32pxrInternal_v0_24__pxrReserved__7SdfPathEEvPT_.exit.i.i.i.i

27:                                               ; preds = %14
  invoke void @_ZNK32pxrInternal_v0_24__pxrReserved__12Sdf_PathNode8_DestroyEv(ptr noundef nonnull align 8 dereferenceable(16) %22)
          to label %_ZSt8_DestroyIN32pxrInternal_v0_24__pxrReserved__7SdfPathEEvPT_.exit.i.i.i.i unwind label %28

28:                                               ; preds = %27
  %29 = landingpad { ptr, i32 }
          catch ptr null
  %30 = extractvalue { ptr, i32 } %29, 0
  call void @__clang_call_terminate(ptr %30) #23
  unreachable

_ZSt8_DestroyIN32pxrInternal_v0_24__pxrReserved__7SdfPathEEvPT_.exit.i.i.i.i: ; preds = %27, %14, %.lr.ph.i.i.i.i
  %31 = getelementptr inbounds nuw i8, ptr %.05.i.i.i.i, i64 8
  %.not.i.i.i.i = icmp eq ptr %31, %.pre20
  br i1 %.not.i.i.i.i, label %_ZSt8_DestroyIPN32pxrInternal_v0_24__pxrReserved__7SdfPathES1_EvT_S3_RSaIT0_E.exitthread-pre-split.i, label %.lr.ph.i.i.i.i, !llvm.loop !24

_ZSt8_DestroyIPN32pxrInternal_v0_24__pxrReserved__7SdfPathES1_EvT_S3_RSaIT0_E.exitthread-pre-split.i: ; preds = %_ZSt8_DestroyIN32pxrInternal_v0_24__pxrReserved__7SdfPathEEvPT_.exit.i.i.i.i
  %.pr.i = load ptr, ptr %3, align 8
  br label %_ZSt8_DestroyIPN32pxrInternal_v0_24__pxrReserved__7SdfPathES1_EvT_S3_RSaIT0_E.exit.i

_ZSt8_DestroyIPN32pxrInternal_v0_24__pxrReserved__7SdfPathES1_EvT_S3_RSaIT0_E.exit.i: ; preds = %2, %_ZSt8_DestroyIPN32pxrInternal_v0_24__pxrReserved__7SdfPathES1_EvT_S3_RSaIT0_E.exitthread-pre-split.i, %._crit_edge
  %.123 = phi ptr [ %8, %_ZSt8_DestroyIPN32pxrInternal_v0_24__pxrReserved__7SdfPathES1_EvT_S3_RSaIT0_E.exitthread-pre-split.i ], [ %8, %._crit_edge ], [ %4, %2 ]
  %32 = phi ptr [ %.pr.i, %_ZSt8_DestroyIPN32pxrInternal_v0_24__pxrReserved__7SdfPathES1_EvT_S3_RSaIT0_E.exitthread-pre-split.i ], [ %.pre, %._crit_edge ], [ %5, %2 ]
  %.not.i.i.i = icmp eq ptr %32, null
  br i1 %.not.i.i.i, label %_ZNSt6vectorIN32pxrInternal_v0_24__pxrReserved__7SdfPathESaIS1_EED2Ev.exit, label %33

33:                                               ; preds = %_ZSt8_DestroyIPN32pxrInternal_v0_24__pxrReserved__7SdfPathES1_EvT_S3_RSaIT0_E.exit.i
  %34 = getelementptr inbounds nuw i8, ptr %3, i64 16
  %35 = load ptr, ptr %34, align 8
  %36 = ptrtoint ptr %35 to i64
  %37 = ptrtoint ptr %32 to i64
  %38 = sub i64 %36, %37
  call void @_ZdlPvm(ptr noundef nonnull %32, i64 noundef %38) #25
  br label %_ZNSt6vectorIN32pxrInternal_v0_24__pxrReserved__7SdfPathESaIS1_EED2Ev.exit

_ZNSt6vectorIN32pxrInternal_v0_24__pxrReserved__7SdfPathESaIS1_EED2Ev.exit: ; preds = %_ZSt8_DestroyIPN32pxrInternal_v0_24__pxrReserved__7SdfPathES1_EvT_S3_RSaIT0_E.exit.i, %33
  ret ptr %.123
}